; Function Attrs: nounwind uwtable
define internal fastcc void @list_kdfs() unnamed_addr #0 {
  %1 = tail call ptr @OPENSSL_sk_new(ptr noundef nonnull @kdf_cmp) #6
  %2 = icmp eq ptr %1, null
  br i1 %2, label %3, label %6

3:                                                ; preds = %0
  %4 = load ptr, ptr @bio_err, align 8, !tbaa !4
  %5 = tail call i32 (ptr, ptr, ...) @BIO_printf(ptr noundef %4, ptr noundef nonnull @.str.99) #6
  br label %45

6:                                                ; preds = %0
  %7 = load ptr, ptr @bio_out, align 8, !tbaa !4
  %8 = tail call i32 (ptr, ptr, ...) @BIO_printf(ptr noundef %7, ptr noundef nonnull @.str.111) #6
  %9 = tail call ptr @app_get0_libctx() #6
  tail call void @EVP_KDF_do_all_provided(ptr noundef %9, ptr noundef nonnull @collect_kdfs, ptr noundef nonnull %1) #6
  tail call void @OPENSSL_sk_sort(ptr noundef nonnull %1) #6
  %10 = tail call i32 @OPENSSL_sk_num(ptr noundef nonnull %1) #6
  %11 = icmp sgt i32 %10, 0
  br i1 %11, label %.lr.ph, label %._crit_edge

.lr.ph:                                           ; preds = %6, %41
  %.029 = phi i32 [ %42, %41 ], [ 0, %6 ]
  %12 = tail call ptr @OPENSSL_sk_value(ptr noundef nonnull %1, i32 noundef %.029) #6
  %13 = load ptr, ptr @select_name, align 8, !tbaa !23
  %.not = icmp eq ptr %13, null
  br i1 %.not, label %16, label %14

14:                                               ; preds = %.lr.ph
  %15 = tail call i32 @EVP_KDF_is_a(ptr noundef %12, ptr noundef nonnull %13) #6
  %.not25 = icmp eq i32 %15, 0
  br i1 %.not25, label %41, label %16

16:                                               ; preds = %14, %.lr.ph
  %17 = tail call ptr @OPENSSL_sk_new(ptr noundef nonnull @name_cmp) #6
  %.not26 = icmp eq ptr %17, null
  br i1 %.not26, label %40, label %18

18:                                               ; preds = %16
  %19 = tail call i32 @EVP_KDF_names_do_all(ptr noundef %12, ptr noundef nonnull @collect_names, ptr noundef nonnull %17) #6
  %.not27 = icmp eq i32 %19, 0
  br i1 %.not27, label %40, label %20

20:                                               ; preds = %18
  %21 = load ptr, ptr @bio_out, align 8, !tbaa !4
  %22 = tail call i32 (ptr, ptr, ...) @BIO_printf(ptr noundef %21, ptr noundef nonnull @.str.102) #6
  %23 = load ptr, ptr @bio_out, align 8, !tbaa !4
  tail call void @print_names(ptr noundef %23, ptr noundef nonnull %17) #6
  %24 = load ptr, ptr @bio_out, align 8, !tbaa !4
  %25 = tail call ptr @EVP_KDF_get0_provider(ptr noundef %12) #6
  %26 = tail call ptr @OSSL_PROVIDER_get0_name(ptr noundef %25) #6
  %27 = tail call i32 (ptr, ptr, ...) @BIO_printf(ptr noundef %24, ptr noundef nonnull @.str.103, ptr noundef %26) #6
  %.b = load i1, ptr @verbose, align 4
  br i1 %.b, label %28, label %40

28:                                               ; preds = %20
  %29 = tail call ptr @EVP_KDF_get0_description(ptr noundef %12) #6
  %.not28 = icmp eq ptr %29, null
  br i1 %.not28, label %33, label %30

30:                                               ; preds = %28
  %31 = load ptr, ptr @bio_out, align 8, !tbaa !4
  %32 = tail call i32 (ptr, ptr, ...) @BIO_printf(ptr noundef %31, ptr noundef nonnull @.str.104, ptr noundef nonnull %29) #6
  br label %33

33:                                               ; preds = %30, %28
  %34 = tail call ptr @EVP_KDF_gettable_params(ptr noundef %12) #6
  %35 = tail call i32 @print_param_types(ptr noundef nonnull @.str.105, ptr noundef %34, i32 noundef 4) #6
  %36 = tail call ptr @EVP_KDF_gettable_ctx_params(ptr noundef %12) #6
  %37 = tail call i32 @print_param_types(ptr noundef nonnull @.str.106, ptr noundef %36, i32 noundef 4) #6
  %38 = tail call ptr @EVP_KDF_settable_ctx_params(ptr noundef %12) #6
  %39 = tail call i32 @print_param_types(ptr noundef nonnull @.str.107, ptr noundef %38, i32 noundef 4) #6
  br label %40

40:                                               ; preds = %20, %33, %18, %16
  tail call void @OPENSSL_sk_free(ptr noundef %17) #6
  br label %41

41:                                               ; preds = %14, %40
  %42 = add nuw nsw i32 %.029, 1
  %43 = tail call i32 @OPENSSL_sk_num(ptr noundef nonnull %1) #6
  %44 = icmp slt i32 %42, %43
  br i1 %44, label %.lr.ph, label %._crit_edge, !llvm.loop !44

._crit_edge:                                      ; preds = %41, %6
  tail call void @OPENSSL_sk_pop_free(ptr noundef nonnull %1, ptr noundef nonnull @EVP_KDF_free) #6
  br label %45

45:                                               ; preds = %._crit_edge, %3
  ret void
}